target datalayout = "e-m:e-p270:32:32-p271:32:32-p272:64:64-i64:64-i128:128-f80:128-n8:16:32:64-S128"
target triple = "x86_64-pc-linux-gnu"

%struct.sp_int = type { i16, i16, [129 x i64] }

; Function Attrs: nounwind uwtable
define i32 @sp_exptmod(ptr noundef %0, ptr noundef %1, ptr noundef %2, ptr noundef %3) #0 {
  %5 = alloca ptr, align 8
  %6 = alloca ptr, align 8
  %7 = alloca ptr, align 8
  %8 = alloca ptr, align 8
  %9 = alloca i32, align 4
  store ptr %0, ptr %5, align 8, !tbaa !3
  store ptr %1, ptr %6, align 8, !tbaa !3
  store ptr %2, ptr %7, align 8, !tbaa !3
  store ptr %3, ptr %8, align 8, !tbaa !3
  call void @llvm.lifetime.start.p0(i64 4, ptr %9) #8
  store i32 0, ptr %9, align 4, !tbaa !8
  %10 = load ptr, ptr %5, align 8, !tbaa !3
  %11 = icmp eq ptr %10, null
  br i1 %11, label %21, label %12

12:                                               ; preds = %4
  %13 = load ptr, ptr %6, align 8, !tbaa !3
  %14 = icmp eq ptr %13, null
  br i1 %14, label %21, label %15

15:                                               ; preds = %12
  %16 = load ptr, ptr %7, align 8, !tbaa !3
  %17 = icmp eq ptr %16, null
  br i1 %17, label %21, label %18

18:                                               ; preds = %15
  %19 = load ptr, ptr %8, align 8, !tbaa !3
  %20 = icmp eq ptr %19, null
  br i1 %20, label %21, label %22

21:                                               ; preds = %18, %15, %12, %4
  store i32 -98, ptr %9, align 4, !tbaa !8
  br label %22

22:                                               ; preds = %21, %18
  br label %23

23:                                               ; preds = %22
  br label %24

24:                                               ; preds = %23
  br label %25

25:                                               ; preds = %24
  %26 = load i32, ptr %9, align 4, !tbaa !8
  %27 = icmp eq i32 %26, 0
  br i1 %27, label %28, label %38

28:                                               ; preds = %25
  %29 = load ptr, ptr %5, align 8, !tbaa !3
  %30 = load ptr, ptr %6, align 8, !tbaa !3
  %31 = load ptr, ptr %6, align 8, !tbaa !3
  %32 = getelementptr inbounds nuw %struct.sp_int, ptr %31, i32 0, i32 0
  %33 = load i16, ptr %32, align 8, !tbaa !15
  %34 = zext i16 %33 to i32
  %35 = load ptr, ptr %7, align 8, !tbaa !3
  %36 = load ptr, ptr %8, align 8, !tbaa !3
  %37 = call i32 @sp_exptmod_ex(ptr noundef %29, ptr noundef %30, i32 noundef %34, ptr noundef %35, ptr noundef %36)
  store i32 %37, ptr %9, align 4, !tbaa !8
  br label %38

38:                                               ; preds = %28, %25
  br label %39

39:                                               ; preds = %38
  br label %40

40:                                               ; preds = %39
  br label %41

41:                                               ; preds = %40
  %42 = load i32, ptr %9, align 4, !tbaa !8
  call void @llvm.lifetime.end.p0(i64 4, ptr %9) #8
  ret i32 %42
}