; Function Attrs: nofree norecurse nosync nounwind memory(readwrite, inaccessiblemem: none) uwtable
define range(i32 -98, 1) i32 @sp_exptmod(ptr noundef captures(address) %0, ptr noundef captures(address) %1, ptr noundef captures(address) %2, ptr noundef captures(address) %3) local_unnamed_addr #11 {
  %5 = icmp ne ptr %0, null
  %6 = icmp ne ptr %1, null
  %or.cond.not19 = and i1 %5, %6
  %7 = icmp ne ptr %2, null
  %or.cond3.not16 = and i1 %or.cond.not19, %7
  %8 = icmp ne ptr %3, null
  %or.cond5.not = and i1 %or.cond3.not16, %8
  br i1 %or.cond5.not, label %9, label %13

9:                                                ; preds = %4
  %10 = load i16, ptr %1, align 8, !tbaa !12
  %11 = zext i16 %10 to i32
  %12 = tail call i32 @sp_exptmod_ex(ptr noundef nonnull %0, ptr noundef nonnull %1, i32 noundef %11, ptr noundef nonnull %2, ptr noundef nonnull %3)
  br label %13

13:                                               ; preds = %4, %9
  %.1 = phi i32 [ %12, %9 ], [ -98, %4 ]
  ret i32 %.1
}